target datalayout = "e-m:e-p270:32:32-p271:32:32-p272:64:64-i64:64-i128:128-f80:128-n8:16:32:64-S128"
target triple = "x86_64-pc-linux-gnu"

%struct.opj_codec_private = type { %union.anon, ptr, %struct.opj_event_mgr, i32, ptr, ptr, ptr, ptr }
%union.anon = type { %struct.opj_decompression }
%struct.opj_decompression = type { ptr, ptr, ptr, ptr, ptr, ptr, ptr, ptr, ptr, ptr, ptr, ptr }
%struct.opj_event_mgr = type { ptr, ptr, ptr, ptr, ptr, ptr }

; Function Attrs: nounwind uwtable
define hidden i32 @opj_codec_set_threads(ptr noundef %0, i32 noundef %1) #0 {
  %3 = alloca i32, align 4
  %4 = alloca ptr, align 8
  %5 = alloca i32, align 4
  %6 = alloca ptr, align 8
  store ptr %0, ptr %4, align 8, !tbaa !3
  store i32 %1, ptr %5, align 4, !tbaa !20
  %7 = load ptr, ptr %4, align 8, !tbaa !3
  %8 = icmp ne ptr %7, null
  br i1 %8, label %9, label %22

9:                                                ; preds = %2
  %10 = load i32, ptr %5, align 4, !tbaa !20
  %11 = icmp sge i32 %10, 0
  br i1 %11, label %12, label %22

12:                                               ; preds = %9
  call void @llvm.lifetime.start.p0(i64 8, ptr %6) #5
  %13 = load ptr, ptr %4, align 8, !tbaa !3
  store ptr %13, ptr %6, align 8, !tbaa !9
  %14 = load ptr, ptr %6, align 8, !tbaa !9
  %15 = getelementptr inbounds nuw %struct.opj_codec_private, ptr %14, i32 0, i32 7
  %16 = load ptr, ptr %15, align 8, !tbaa !26
  %17 = load ptr, ptr %6, align 8, !tbaa !9
  %18 = getelementptr inbounds nuw %struct.opj_codec_private, ptr %17, i32 0, i32 1
  %19 = load ptr, ptr %18, align 8, !tbaa !27
  %20 = load i32, ptr %5, align 4, !tbaa !20
  %21 = call i32 %16(ptr noundef %19, i32 noundef %20)
  store i32 %21, ptr %3, align 4
  call void @llvm.lifetime.end.p0(i64 8, ptr %6) #5
  br label %23

22:                                               ; preds = %9, %2
  store i32 0, ptr %3, align 4
  br label %23

23:                                               ; preds = %22, %12
  %24 = load i32, ptr %3, align 4
  ret i32 %24
}