; Function Attrs: nounwind uwtable
define hidden i32 @opj_codec_set_threads(ptr noundef readonly %0, i32 noundef %1) local_unnamed_addr #2 {
  %3 = icmp ne ptr %0, null
  %4 = icmp sgt i32 %1, -1
  %or.cond = and i1 %3, %4
  br i1 %or.cond, label %5, label %11

5:                                                ; preds = %2
  %6 = getelementptr inbounds nuw i8, ptr %0, i64 184
  %7 = load ptr, ptr %6, align 8, !tbaa !20
  %8 = getelementptr inbounds nuw i8, ptr %0, i64 96
  %9 = load ptr, ptr %8, align 8, !tbaa !21
  %10 = tail call i32 %7(ptr noundef %9, i32 noundef %1) #8
  br label %11

11:                                               ; preds = %2, %5
  %.0 = phi i32 [ %10, %5 ], [ 0, %2 ]
  ret i32 %.0
}